; ModuleID = '24/2078.c'
source_filename = "24/2078.c"
target datalayout = "e-m:e-p270:32:32-p271:32:32-p272:64:64-i64:64-f80:128-n8:16:32:64-S128"
target triple = "x86_64-pc-linux-gnu"

@.str = private unnamed_addr constant [6 x i8] c"%s\0A%s\00", align 1

; Function Attrs: noinline nounwind uwtable
define dso_local i32 @main() #0 {
  %1 = alloca i32, align 4
  %2 = alloca [2000 x i8], align 16
  %3 = alloca [200 x [200 x i8]], align 16
  %4 = alloca i32, align 4
  %5 = alloca i32, align 4
  %6 = alloca i32, align 4
  %7 = alloca [200 x i32], align 16
  %8 = alloca i32, align 4
  %9 = alloca i32, align 4
  %10 = alloca i32, align 4
  %11 = alloca i32, align 4
  %12 = alloca i32, align 4
  %13 = alloca i32, align 4
  store i32 0, i32* %1, align 4
  %14 = getelementptr inbounds [2000 x i8], [2000 x i8]* %2, i64 0, i64 0
  %15 = call i32 (i8*, ...) bitcast (i32 (...)* @gets to i32 (i8*, ...)*)(i8* %14)
  %16 = getelementptr inbounds [2000 x i8], [2000 x i8]* %2, i64 0, i64 0
  %17 = call i64 @strlen(i8* %16) #3
  %18 = trunc i64 %17 to i32
  store i32 %18, i32* %4, align 4
  store i32 0, i32* %5, align 4
  store i32 0, i32* %6, align 4
  store i32 0, i32* %8, align 4
  store i32 2000, i32* %9, align 4
  store i32 0, i32* %13, align 4
  br label %19

19:                                               ; preds = %75, %0
  %20 = load i32, i32* %5, align 4
  %21 = load i32, i32* %4, align 4
  %22 = icmp slt i32 %20, %21
  br i1 %22, label %23, label %76

23:                                               ; preds = %19
  %24 = load i32, i32* %5, align 4
  %25 = sext i32 %24 to i64
  %26 = getelementptr inbounds [2000 x i8], [2000 x i8]* %2, i64 0, i64 %25
  %27 = load i8, i8* %26, align 1
  %28 = sext i8 %27 to i32
  %29 = icmp ne i32 %28, 32
  br i1 %29, label %30, label %72

30:                                               ; preds = %23
  %31 = load i32, i32* %5, align 4
  store i32 %31, i32* %12, align 4
  br label %32

32:                                               ; preds = %58, %30
  %33 = load i32, i32* %12, align 4
  %34 = load i32, i32* %4, align 4
  %35 = icmp slt i32 %33, %34
  br i1 %35, label %36, label %43

36:                                               ; preds = %32
  %37 = load i32, i32* %12, align 4
  %38 = sext i32 %37 to i64
  %39 = getelementptr inbounds [2000 x i8], [2000 x i8]* %2, i64 0, i64 %38
  %40 = load i8, i8* %39, align 1
  %41 = sext i8 %40 to i32
  %42 = icmp ne i32 %41, 32
  br label %43

43:                                               ; preds = %36, %32
  %44 = phi i1 [ false, %32 ], [ %42, %36 ]
  br i1 %44, label %45, label %61

45:                                               ; preds = %43
  %46 = load i32, i32* %12, align 4
  %47 = sext i32 %46 to i64
  %48 = getelementptr inbounds [2000 x i8], [2000 x i8]* %2, i64 0, i64 %47
  %49 = load i8, i8* %48, align 1
  %50 = load i32, i32* %6, align 4
  %51 = sext i32 %50 to i64
  %52 = getelementptr inbounds [200 x [200 x i8]], [200 x [200 x i8]]* %3, i64 0, i64 %51
  %53 = load i32, i32* %13, align 4
  %54 = sext i32 %53 to i64
  %55 = getelementptr inbounds [200 x i8], [200 x i8]* %52, i64 0, i64 %54
  store i8 %49, i8* %55, align 1
  %56 = load i32, i32* %13, align 4
  %57 = add nsw i32 %56, 1
  store i32 %57, i32* %13, align 4
  br label %58

58:                                               ; preds = %45
  %59 = load i32, i32* %12, align 4
  %60 = add nsw i32 %59, 1
  store i32 %60, i32* %12, align 4
  br label %32

61:                                               ; preds = %43
  %62 = load i32, i32* %6, align 4
  %63 = sext i32 %62 to i64
  %64 = getelementptr inbounds [200 x [200 x i8]], [200 x [200 x i8]]* %3, i64 0, i64 %63
  %65 = load i32, i32* %13, align 4
  %66 = sext i32 %65 to i64
  %67 = getelementptr inbounds [200 x i8], [200 x i8]* %64, i64 0, i64 %66
  store i8 0, i8* %67, align 1
  %68 = load i32, i32* %12, align 4
  %69 = add nsw i32 %68, 1
  store i32 %69, i32* %5, align 4
  %70 = load i32, i32* %6, align 4
  %71 = add nsw i32 %70, 1
  store i32 %71, i32* %6, align 4
  store i32 0, i32* %13, align 4
  br label %75

72:                                               ; preds = %23
  %73 = load i32, i32* %5, align 4
  %74 = add nsw i32 %73, 1
  store i32 %74, i32* %5, align 4
  br label %75

75:                                               ; preds = %72, %61
  br label %19

76:                                               ; preds = %19
  store i32 0, i32* %5, align 4
  br label %77

77:                                               ; preds = %117, %76
  %78 = load i32, i32* %5, align 4
  %79 = load i32, i32* %6, align 4
  %80 = icmp slt i32 %78, %79
  br i1 %80, label %81, label %120

81:                                               ; preds = %77
  %82 = load i32, i32* %5, align 4
  %83 = sext i32 %82 to i64
  %84 = getelementptr inbounds [200 x [200 x i8]], [200 x [200 x i8]]* %3, i64 0, i64 %83
  %85 = getelementptr inbounds [200 x i8], [200 x i8]* %84, i64 0, i64 0
  %86 = call i64 @strlen(i8* %85) #3
  %87 = trunc i64 %86 to i32
  %88 = load i32, i32* %5, align 4
  %89 = sext i32 %88 to i64
  %90 = getelementptr inbounds [200 x i32], [200 x i32]* %7, i64 0, i64 %89
  store i32 %87, i32* %90, align 4
  %91 = load i32, i32* %5, align 4
  %92 = sext i32 %91 to i64
  %93 = getelementptr inbounds [200 x i32], [200 x i32]* %7, i64 0, i64 %92
  %94 = load i32, i32* %93, align 4
  %95 = load i32, i32* %8, align 4
  %96 = icmp sgt i32 %94, %95
  br i1 %96, label %97, label %103

97:                                               ; preds = %81
  %98 = load i32, i32* %5, align 4
  %99 = sext i32 %98 to i64
  %100 = getelementptr inbounds [200 x i32], [200 x i32]* %7, i64 0, i64 %99
  %101 = load i32, i32* %100, align 4
  store i32 %101, i32* %8, align 4
  %102 = load i32, i32* %5, align 4
  store i32 %102, i32* %11, align 4
  br label %103

103:                                              ; preds = %97, %81
  %104 = load i32, i32* %5, align 4
  %105 = sext i32 %104 to i64
  %106 = getelementptr inbounds [200 x i32], [200 x i32]* %7, i64 0, i64 %105
  %107 = load i32, i32* %106, align 4
  %108 = load i32, i32* %9, align 4
  %109 = icmp slt i32 %107, %108
  br i1 %109, label %110, label %116

110:                                              ; preds = %103
  %111 = load i32, i32* %5, align 4
  %112 = sext i32 %111 to i64
  %113 = getelementptr inbounds [200 x i32], [200 x i32]* %7, i64 0, i64 %112
  %114 = load i32, i32* %113, align 4
  store i32 %114, i32* %9, align 4
  %115 = load i32, i32* %5, align 4
  store i32 %115, i32* %10, align 4
  br label %116

116:                                              ; preds = %110, %103
  br label %117

117:                                              ; preds = %116
  %118 = load i32, i32* %5, align 4
  %119 = add nsw i32 %118, 1
  store i32 %119, i32* %5, align 4
  br label %77

120:                                              ; preds = %77
  %121 = load i32, i32* %11, align 4
  %122 = sext i32 %121 to i64
  %123 = getelementptr inbounds [200 x [200 x i8]], [200 x [200 x i8]]* %3, i64 0, i64 %122
  %124 = getelementptr inbounds [200 x i8], [200 x i8]* %123, i64 0, i64 0
  %125 = load i32, i32* %10, align 4
  %126 = sext i32 %125 to i64
  %127 = getelementptr inbounds [200 x [200 x i8]], [200 x [200 x i8]]* %3, i64 0, i64 %126
  %128 = getelementptr inbounds [200 x i8], [200 x i8]* %127, i64 0, i64 0
  %129 = call i32 (i8*, ...) @printf(i8* getelementptr inbounds ([6 x i8], [6 x i8]* @.str, i64 0, i64 0), i8* %124, i8* %128)
  ret i32 0
}

declare dso_local i32 @gets(...) #1

; Function Attrs: nounwind readonly
declare dso_local i64 @strlen(i8*) #2

declare dso_local i32 @printf(i8*, ...) #1


!llvm.module.flags = !{!0}
!llvm.ident = !{!1}

!0 = !{i32 1, !"wchar_size", i32 4}
!1 = !{!"clang version 10.0.0-4ubuntu1 "}
